target datalayout = "e-m:e-p270:32:32-p271:32:32-p272:64:64-i64:64-i128:128-f80:128-n8:16:32:64-S128"
target triple = "x86_64-pc-linux-gnu"

@proto_register_dmx_chan.ett = internal global [1 x ptr] [ptr @ett_dmx_chan], align 8
@.str.20 = private unnamed_addr constant [13 x i8] c"DMX Channels\00", align 1
@.str.21 = private unnamed_addr constant [9 x i8] c"dmx_chan\00", align 1
@proto_dmx_chan = internal global i32 0, align 4
@.str.22 = private unnamed_addr constant [9 x i8] c"dmx-chan\00", align 1
@.str.23 = private unnamed_addr constant [23 x i8] c"dmx_disp_chan_val_type\00", align 1
@.str.24 = private unnamed_addr constant [31 x i8] c"DMX Display channel value type\00", align 1
@.str.25 = private unnamed_addr constant [33 x i8] c"The way DMX values are displayed\00", align 1
@global_disp_chan_val_type = internal global i32 0, align 4
@.str.26 = private unnamed_addr constant [22 x i8] c"dmx_disp_chan_nr_type\00", align 1
@.str.27 = private unnamed_addr constant [29 x i8] c"DMX Display channel nr. type\00", align 1
@.str.28 = private unnamed_addr constant [42 x i8] c"The way DMX channel numbers are displayed\00", align 1
@global_disp_chan_nr_type = internal global i32 0, align 4
@.str.29 = private unnamed_addr constant [19 x i8] c"dmx_disp_col_count\00", align 1
@.str.30 = private unnamed_addr constant [25 x i8] c"DMX Display Column Count\00", align 1
@.str.31 = private unnamed_addr constant [42 x i8] c"The number of columns for the DMX display\00", align 1
@global_disp_col_count = internal global i32 16, align 4

; Function Attrs: null_pointer_is_valid sspstrong uwtable
define hidden void @proto_register_dmx_chan() #0 {
  %1 = alloca ptr, align 8
  call void @llvm.lifetime.start.p0(i64 8, ptr %1) #4
  %2 = call i32 @proto_register_protocol(ptr noundef @.str.20, ptr noundef @.str.20, ptr noundef @.str.21)
  store i32 %2, ptr @proto_dmx_chan, align 4
  %3 = load i32, ptr @proto_dmx_chan, align 4
  call void @proto_register_field_array(i32 noundef %3, ptr noundef @proto_register_dmx_chan.hf, i32 noundef 2)
  call void @proto_register_subtree_array(ptr noundef @proto_register_dmx_chan.ett, i32 noundef 1)
  %4 = load i32, ptr @proto_dmx_chan, align 4
  %5 = call ptr @register_dissector(ptr noundef @.str.22, ptr noundef @dissect_dmx_chan, i32 noundef %4)
  %6 = load i32, ptr @proto_dmx_chan, align 4
  %7 = call ptr @prefs_register_protocol(i32 noundef %6, ptr noundef null)
  store ptr %7, ptr %1, align 8
  %8 = load ptr, ptr %1, align 8
  call void @prefs_register_enum_preference(ptr noundef %8, ptr noundef @.str.23, ptr noundef @.str.24, ptr noundef @.str.25, ptr noundef @global_disp_chan_val_type, ptr noundef @proto_register_dmx_chan.disp_chan_val_types, i1 noundef zeroext false)
  %9 = load ptr, ptr %1, align 8
  call void @prefs_register_enum_preference(ptr noundef %9, ptr noundef @.str.26, ptr noundef @.str.27, ptr noundef @.str.28, ptr noundef @global_disp_chan_nr_type, ptr noundef @proto_register_dmx_chan.disp_chan_nr_types, i1 noundef zeroext false)
  %10 = load ptr, ptr %1, align 8
  call void @prefs_register_enum_preference(ptr noundef %10, ptr noundef @.str.29, ptr noundef @.str.30, ptr noundef @.str.31, ptr noundef @global_disp_col_count, ptr noundef @proto_register_dmx_chan.col_count, i1 noundef zeroext false)
  call void @llvm.lifetime.end.p0(i64 8, ptr %1) #4
  ret void
}