; Function Attrs: null_pointer_is_valid sspstrong uwtable
define hidden void @proto_register_dmx_chan() local_unnamed_addr #0 {
  %1 = tail call i32 @proto_register_protocol(ptr noundef nonnull @.str.20, ptr noundef nonnull @.str.20, ptr noundef nonnull @.str.21)
  store i32 %1, ptr @proto_dmx_chan, align 4
  tail call void @proto_register_field_array(i32 noundef %1, ptr noundef nonnull @proto_register_dmx_chan.hf, i32 noundef 2)
  tail call void @proto_register_subtree_array(ptr noundef nonnull @proto_register_dmx_chan.ett, i32 noundef 1)
  %2 = load i32, ptr @proto_dmx_chan, align 4
  %3 = tail call ptr @register_dissector(ptr noundef nonnull @.str.22, ptr noundef nonnull @dissect_dmx_chan, i32 noundef %2)
  %4 = load i32, ptr @proto_dmx_chan, align 4
  %5 = tail call ptr @prefs_register_protocol(i32 noundef %4, ptr noundef null)
  tail call void @prefs_register_enum_preference(ptr noundef %5, ptr noundef nonnull @.str.23, ptr noundef nonnull @.str.24, ptr noundef nonnull @.str.25, ptr noundef nonnull @global_disp_chan_val_type, ptr noundef nonnull @proto_register_dmx_chan.disp_chan_val_types, i1 noundef zeroext false)
  tail call void @prefs_register_enum_preference(ptr noundef %5, ptr noundef nonnull @.str.26, ptr noundef nonnull @.str.27, ptr noundef nonnull @.str.28, ptr noundef nonnull @global_disp_chan_nr_type, ptr noundef nonnull @proto_register_dmx_chan.disp_chan_nr_types, i1 noundef zeroext false)
  tail call void @prefs_register_enum_preference(ptr noundef %5, ptr noundef nonnull @.str.29, ptr noundef nonnull @.str.30, ptr noundef nonnull @.str.31, ptr noundef nonnull @global_disp_col_count, ptr noundef nonnull @proto_register_dmx_chan.col_count, i1 noundef zeroext false)
  ret void
}